; Function Attrs: nounwind sspstrong uwtable
define dso_local void @cpu_watchpoint_remove_by_ref(ptr noundef %cpu, ptr noundef %watchpoint) local_unnamed_addr #0 {
entry:
  %entry1 = getelementptr inbounds nuw i8, ptr %watchpoint, i64 32
  %0 = load ptr, ptr %entry1, align 8
  %cmp.not = icmp eq ptr %0, null
  %tql_prev7 = getelementptr inbounds nuw i8, ptr %watchpoint, i64 40
  %1 = load ptr, ptr %tql_prev7, align 8
  br i1 %cmp.not, label %if.else, label %if.then

if.then:                                          ; preds = %entry
  %tql_prev5 = getelementptr inbounds nuw i8, ptr %0, i64 40
  store ptr %1, ptr %tql_prev5, align 8
  br label %if.end

if.else:                                          ; preds = %entry
  %tql_prev8 = getelementptr inbounds nuw i8, ptr %cpu, i64 608
  store ptr %1, ptr %tql_prev8, align 8
  br label %if.end

if.end:                                           ; preds = %if.else, %if.then
  %2 = load ptr, ptr %entry1, align 8
  store ptr %2, ptr %1, align 8
  tail call void @llvm.memset.p0.i64(ptr noundef nonnull align 8 dereferenceable(16) %entry1, i8 0, i64 16, i1 false)
  %3 = load i64, ptr %watchpoint, align 8
  tail call void @tlb_flush_page(ptr noundef %cpu, i64 noundef %3) #8
  tail call void @g_free(ptr noundef nonnull %watchpoint) #8
  ret void
}